; Function Attrs: nounwind uwtable
define hidden void @uv__io_start(ptr noundef %0, ptr noundef %1, i32 noundef %2) local_unnamed_addr #0 {
  %4 = getelementptr inbounds nuw i8, ptr %1, i64 40
  %5 = load i32, ptr %4, align 8
  %6 = or i32 %5, %2
  store i32 %6, ptr %4, align 8
  %7 = getelementptr inbounds nuw i8, ptr %1, i64 48
  %8 = load i32, ptr %7, align 8
  %9 = add nsw i32 %8, 1
  %10 = getelementptr inbounds nuw i8, ptr %0, i64 112
  %11 = load i32, ptr %10, align 8
  %.not.i = icmp ugt i32 %9, %11
  br i1 %.not.i, label %12, label %maybe_resize.exit

12:                                               ; preds = %3
  %13 = getelementptr inbounds nuw i8, ptr %0, i64 104
  %14 = load ptr, ptr %13, align 8
  %.not33.i = icmp eq ptr %14, null
  br i1 %.not33.i, label %23, label %15

15:                                               ; preds = %12
  %16 = zext i32 %11 to i64
  %17 = getelementptr inbounds nuw ptr, ptr %14, i64 %16
  %18 = load ptr, ptr %17, align 8
  %19 = add nuw i32 %11, 1
  %20 = zext i32 %19 to i64
  %21 = getelementptr inbounds nuw ptr, ptr %14, i64 %20
  %22 = load ptr, ptr %21, align 8
  br label %23

23:                                               ; preds = %15, %12
  %.027.i = phi ptr [ %22, %15 ], [ null, %12 ]
  %.026.i = phi ptr [ %18, %15 ], [ null, %12 ]
  %24 = add i32 %8, 2
  %25 = lshr i32 %24, 1
  %26 = or i32 %25, %24
  %27 = lshr i32 %26, 2
  %28 = or i32 %27, %26
  %29 = lshr i32 %28, 4
  %30 = or i32 %29, %28
  %31 = lshr i32 %30, 8
  %32 = or i32 %31, %30
  %33 = lshr i32 %32, 16
  %34 = or i32 %33, %32
  %35 = add i32 %34, 1
  %36 = add i32 %34, -1
  %37 = zext i32 %35 to i64
  %38 = shl nuw nsw i64 %37, 3
  %39 = tail call ptr @uv__reallocf(ptr noundef %14, i64 noundef %38) #23
  %40 = icmp eq ptr %39, null
  br i1 %40, label %41, label %42

41:                                               ; preds = %23
  tail call void @abort() #26
  unreachable

42:                                               ; preds = %23
  %43 = load i32, ptr %10, align 8
  %44 = icmp ult i32 %43, %36
  br i1 %44, label %.lr.ph.preheader.i, label %._crit_edge.i

.lr.ph.preheader.i:                               ; preds = %42
  %45 = zext i32 %43 to i64
  %46 = shl nuw nsw i64 %45, 3
  %scevgep.i = getelementptr i8, ptr %39, i64 %46
  %47 = add i32 %34, -2
  %48 = sub i32 %47, %43
  %49 = zext i32 %48 to i64
  %50 = shl nuw nsw i64 %49, 3
  %51 = add nuw nsw i64 %50, 8
  tail call void @llvm.memset.p0.i64(ptr noundef nonnull align 8 dereferenceable(1) %scevgep.i, i8 0, i64 %51, i1 false)
  br label %._crit_edge.i

._crit_edge.i:                                    ; preds = %.lr.ph.preheader.i, %42
  %52 = zext i32 %36 to i64
  %53 = getelementptr inbounds nuw ptr, ptr %39, i64 %52
  store ptr %.026.i, ptr %53, align 8
  %54 = zext i32 %34 to i64
  %55 = getelementptr inbounds nuw ptr, ptr %39, i64 %54
  store ptr %.027.i, ptr %55, align 8
  store ptr %39, ptr %13, align 8
  store i32 %36, ptr %10, align 8
  %.pre = load i32, ptr %4, align 8
  br label %maybe_resize.exit

maybe_resize.exit:                                ; preds = %3, %._crit_edge.i
  %56 = phi i32 [ %6, %3 ], [ %.pre, %._crit_edge.i ]
  %57 = getelementptr inbounds nuw i8, ptr %1, i64 44
  %58 = load i32, ptr %57, align 4
  %59 = icmp eq i32 %58, %56
  br i1 %59, label %80, label %60

60:                                               ; preds = %maybe_resize.exit
  %61 = getelementptr inbounds nuw i8, ptr %1, i64 24
  %62 = load ptr, ptr %61, align 8
  %.not = icmp eq ptr %61, %62
  br i1 %.not, label %63, label %68

63:                                               ; preds = %60
  %64 = getelementptr inbounds nuw i8, ptr %0, i64 88
  store ptr %64, ptr %61, align 8
  %65 = getelementptr inbounds nuw i8, ptr %0, i64 96
  %66 = load ptr, ptr %65, align 8
  %67 = getelementptr inbounds nuw i8, ptr %1, i64 32
  store ptr %66, ptr %67, align 8
  store ptr %61, ptr %66, align 8
  store ptr %61, ptr %65, align 8
  br label %68

68:                                               ; preds = %63, %60
  %69 = getelementptr inbounds nuw i8, ptr %0, i64 104
  %70 = load ptr, ptr %69, align 8
  %71 = load i32, ptr %7, align 8
  %72 = sext i32 %71 to i64
  %73 = getelementptr inbounds ptr, ptr %70, i64 %72
  %74 = load ptr, ptr %73, align 8
  %75 = icmp eq ptr %74, null
  br i1 %75, label %76, label %80

76:                                               ; preds = %68
  store ptr %1, ptr %73, align 8
  %77 = getelementptr inbounds nuw i8, ptr %0, i64 116
  %78 = load i32, ptr %77, align 4
  %79 = add i32 %78, 1
  store i32 %79, ptr %77, align 4
  br label %80

80:                                               ; preds = %maybe_resize.exit, %76, %68
  ret void
}